target datalayout = "e-m:e-p270:32:32-p271:32:32-p272:64:64-i64:64-i128:128-f80:128-n8:16:32:64-S128"
target triple = "x86_64-pc-linux-gnu"

%struct.AVFilterLink = type { ptr, ptr, ptr, ptr, i32, i32, i32, i32, %struct.AVRational, i32, i32, i32, %struct.AVChannelLayout, %struct.AVRational, ptr, i32, %struct.AVFilterFormatsConfig, %struct.AVFilterFormatsConfig }
%struct.AVChannelLayout = type { i32, i32, %union.anon.1, ptr }
%union.anon.1 = type { i64 }
%struct.AVRational = type { i32, i32 }
%struct.AVFilterFormatsConfig = type { ptr, ptr, ptr, ptr, ptr }
%struct.AVFilterContext = type { ptr, ptr, ptr, ptr, ptr, i32, ptr, ptr, i32, ptr, ptr, i32, i32, ptr, ptr, ptr, ptr, i32, ptr, i32, i32 }
%struct.ScrollContext = type { ptr, float, float, float, float, float, float, [4 x i32], [4 x i32], ptr, i32, i32, [4 x i32], [4 x i32] }
%struct.AVPixFmtDescriptor = type { ptr, i8, i8, i8, i64, [4 x %struct.AVComponentDescriptor], ptr }
%struct.AVComponentDescriptor = type { i32, i32, i32, i32, i32 }
%struct.ThreadData = type { ptr, ptr }
%struct.AVFrame = type { [8 x ptr], [8 x i32], ptr, i32, i32, i32, i32, i32, %struct.AVRational, i64, i64, %struct.AVRational, i32, ptr, i32, i32, [8 x ptr], ptr, i32, ptr, i32, i32, i32, i32, i32, i32, i32, i64, ptr, i32, ptr, ptr, i64, i64, i64, i64, ptr, %struct.AVChannelLayout, i64 }

; Function Attrs: nounwind uwtable
define internal void @scroll(ptr noundef %0, ptr noundef %1, ptr noundef %2) #1 {
  %4 = alloca ptr, align 8
  %5 = alloca ptr, align 8
  %6 = alloca ptr, align 8
  %7 = alloca ptr, align 8
  %8 = alloca %struct.ThreadData, align 8
  %9 = alloca i32, align 4
  %10 = alloca i32, align 4
  store ptr %0, ptr %4, align 8, !tbaa !23
  store ptr %1, ptr %5, align 8, !tbaa !9
  store ptr %2, ptr %6, align 8, !tbaa !9
  call void @llvm.lifetime.start.p0(i64 8, ptr %7) #7
  %11 = load ptr, ptr %4, align 8, !tbaa !23
  %12 = getelementptr inbounds nuw %struct.AVFilterContext, ptr %11, i32 0, i32 9
  %13 = load ptr, ptr %12, align 8, !tbaa !36
  store ptr %13, ptr %7, align 8, !tbaa !37
  call void @llvm.lifetime.start.p0(i64 16, ptr %8) #7
  call void @llvm.lifetime.start.p0(i64 4, ptr %9) #7
  call void @llvm.lifetime.start.p0(i64 4, ptr %10) #7
  %14 = load ptr, ptr %7, align 8, !tbaa !37
  %15 = getelementptr inbounds nuw %struct.ScrollContext, ptr %14, i32 0, i32 3
  %16 = load float, ptr %15, align 8, !tbaa !55
  %17 = load ptr, ptr %5, align 8, !tbaa !9
  %18 = getelementptr inbounds nuw %struct.AVFrame, ptr %17, i32 0, i32 3
  %19 = load i32, ptr %18, align 8, !tbaa !58
  %20 = sitofp i32 %19 to float
  %21 = frem nsz float %16, %20
  %22 = load ptr, ptr %7, align 8, !tbaa !37
  %23 = getelementptr inbounds nuw %struct.ScrollContext, ptr %22, i32 0, i32 3
  store float %21, ptr %23, align 8, !tbaa !55
  %24 = load ptr, ptr %7, align 8, !tbaa !37
  %25 = getelementptr inbounds nuw %struct.ScrollContext, ptr %24, i32 0, i32 4
  %26 = load float, ptr %25, align 4, !tbaa !57
  %27 = load ptr, ptr %5, align 8, !tbaa !9
  %28 = getelementptr inbounds nuw %struct.AVFrame, ptr %27, i32 0, i32 4
  %29 = load i32, ptr %28, align 4, !tbaa !63
  %30 = sitofp i32 %29 to float
  %31 = frem nsz float %26, %30
  %32 = load ptr, ptr %7, align 8, !tbaa !37
  %33 = getelementptr inbounds nuw %struct.ScrollContext, ptr %32, i32 0, i32 4
  store float %31, ptr %33, align 4, !tbaa !57
  %34 = load ptr, ptr %7, align 8, !tbaa !37
  %35 = getelementptr inbounds nuw %struct.ScrollContext, ptr %34, i32 0, i32 3
  %36 = load float, ptr %35, align 8, !tbaa !55
  %37 = fptosi float %36 to i32
  store i32 %37, ptr %9, align 4, !tbaa !52
  %38 = load ptr, ptr %7, align 8, !tbaa !37
  %39 = getelementptr inbounds nuw %struct.ScrollContext, ptr %38, i32 0, i32 4
  %40 = load float, ptr %39, align 4, !tbaa !57
  %41 = fptosi float %40 to i32
  store i32 %41, ptr %10, align 4, !tbaa !52
  %42 = load i32, ptr %9, align 4, !tbaa !52
  %43 = icmp slt i32 %42, 0
  br i1 %43, label %44, label %50

44:                                               ; preds = %3
  %45 = load ptr, ptr %5, align 8, !tbaa !9
  %46 = getelementptr inbounds nuw %struct.AVFrame, ptr %45, i32 0, i32 3
  %47 = load i32, ptr %46, align 8, !tbaa !58
  %48 = load i32, ptr %9, align 4, !tbaa !52
  %49 = add nsw i32 %48, %47
  store i32 %49, ptr %9, align 4, !tbaa !52
  br label %50

50:                                               ; preds = %44, %3
  %51 = load i32, ptr %10, align 4, !tbaa !52
  %52 = icmp slt i32 %51, 0
  br i1 %52, label %53, label %59

53:                                               ; preds = %50
  %54 = load ptr, ptr %5, align 8, !tbaa !9
  %55 = getelementptr inbounds nuw %struct.AVFrame, ptr %54, i32 0, i32 4
  %56 = load i32, ptr %55, align 4, !tbaa !63
  %57 = load i32, ptr %10, align 4, !tbaa !52
  %58 = add nsw i32 %57, %56
  store i32 %58, ptr %10, align 4, !tbaa !52
  br label %59

59:                                               ; preds = %53, %50
  %60 = load ptr, ptr %7, align 8, !tbaa !37
  %61 = getelementptr inbounds nuw %struct.ScrollContext, ptr %60, i32 0, i32 9
  %62 = load ptr, ptr %61, align 8, !tbaa !40
  %63 = getelementptr inbounds nuw %struct.AVPixFmtDescriptor, ptr %62, i32 0, i32 3
  %64 = load i8, ptr %63, align 2, !tbaa !51
  %65 = call i1 @llvm.is.constant.i8(i8 %64)
  br i1 %65, label %77, label %66

66:                                               ; preds = %59
  %67 = load i32, ptr %10, align 4, !tbaa !52
  %68 = sub nsw i32 0, %67
  %69 = load ptr, ptr %7, align 8, !tbaa !37
  %70 = getelementptr inbounds nuw %struct.ScrollContext, ptr %69, i32 0, i32 9
  %71 = load ptr, ptr %70, align 8, !tbaa !40
  %72 = getelementptr inbounds nuw %struct.AVPixFmtDescriptor, ptr %71, i32 0, i32 3
  %73 = load i8, ptr %72, align 2, !tbaa !51
  %74 = zext i8 %73 to i32
  %75 = ashr i32 %68, %74
  %76 = sub nsw i32 0, %75
  br label %95

77:                                               ; preds = %59
  %78 = load i32, ptr %10, align 4, !tbaa !52
  %79 = load ptr, ptr %7, align 8, !tbaa !37
  %80 = getelementptr inbounds nuw %struct.ScrollContext, ptr %79, i32 0, i32 9
  %81 = load ptr, ptr %80, align 8, !tbaa !40
  %82 = getelementptr inbounds nuw %struct.AVPixFmtDescriptor, ptr %81, i32 0, i32 3
  %83 = load i8, ptr %82, align 2, !tbaa !51
  %84 = zext i8 %83 to i32
  %85 = shl i32 1, %84
  %86 = add nsw i32 %78, %85
  %87 = sub nsw i32 %86, 1
  %88 = load ptr, ptr %7, align 8, !tbaa !37
  %89 = getelementptr inbounds nuw %struct.ScrollContext, ptr %88, i32 0, i32 9
  %90 = load ptr, ptr %89, align 8, !tbaa !40
  %91 = getelementptr inbounds nuw %struct.AVPixFmtDescriptor, ptr %90, i32 0, i32 3
  %92 = load i8, ptr %91, align 2, !tbaa !51
  %93 = zext i8 %92 to i32
  %94 = ashr i32 %87, %93
  br label %95

95:                                               ; preds = %77, %66
  %96 = phi i32 [ %76, %66 ], [ %94, %77 ]
  %97 = load ptr, ptr %7, align 8, !tbaa !37
  %98 = getelementptr inbounds nuw %struct.ScrollContext, ptr %97, i32 0, i32 8
  %99 = getelementptr inbounds [4 x i32], ptr %98, i64 0, i64 2
  store i32 %96, ptr %99, align 8, !tbaa !52
  %100 = load ptr, ptr %7, align 8, !tbaa !37
  %101 = getelementptr inbounds nuw %struct.ScrollContext, ptr %100, i32 0, i32 8
  %102 = getelementptr inbounds [4 x i32], ptr %101, i64 0, i64 1
  store i32 %96, ptr %102, align 4, !tbaa !52
  %103 = load i32, ptr %10, align 4, !tbaa !52
  %104 = load ptr, ptr %7, align 8, !tbaa !37
  %105 = getelementptr inbounds nuw %struct.ScrollContext, ptr %104, i32 0, i32 8
  %106 = getelementptr inbounds [4 x i32], ptr %105, i64 0, i64 3
  store i32 %103, ptr %106, align 4, !tbaa !52
  %107 = load ptr, ptr %7, align 8, !tbaa !37
  %108 = getelementptr inbounds nuw %struct.ScrollContext, ptr %107, i32 0, i32 8
  %109 = getelementptr inbounds [4 x i32], ptr %108, i64 0, i64 0
  store i32 %103, ptr %109, align 8, !tbaa !52
  %110 = load ptr, ptr %7, align 8, !tbaa !37
  %111 = getelementptr inbounds nuw %struct.ScrollContext, ptr %110, i32 0, i32 9
  %112 = load ptr, ptr %111, align 8, !tbaa !40
  %113 = getelementptr inbounds nuw %struct.AVPixFmtDescriptor, ptr %112, i32 0, i32 2
  %114 = load i8, ptr %113, align 1, !tbaa !53
  %115 = call i1 @llvm.is.constant.i8(i8 %114)
  br i1 %115, label %127, label %116

116:                                              ; preds = %95
  %117 = load i32, ptr %9, align 4, !tbaa !52
  %118 = sub nsw i32 0, %117
  %119 = load ptr, ptr %7, align 8, !tbaa !37
  %120 = getelementptr inbounds nuw %struct.ScrollContext, ptr %119, i32 0, i32 9
  %121 = load ptr, ptr %120, align 8, !tbaa !40
  %122 = getelementptr inbounds nuw %struct.AVPixFmtDescriptor, ptr %121, i32 0, i32 2
  %123 = load i8, ptr %122, align 1, !tbaa !53
  %124 = zext i8 %123 to i32
  %125 = ashr i32 %118, %124
  %126 = sub nsw i32 0, %125
  br label %145

127:                                              ; preds = %95
  %128 = load i32, ptr %9, align 4, !tbaa !52
  %129 = load ptr, ptr %7, align 8, !tbaa !37
  %130 = getelementptr inbounds nuw %struct.ScrollContext, ptr %129, i32 0, i32 9
  %131 = load ptr, ptr %130, align 8, !tbaa !40
  %132 = getelementptr inbounds nuw %struct.AVPixFmtDescriptor, ptr %131, i32 0, i32 2
  %133 = load i8, ptr %132, align 1, !tbaa !53
  %134 = zext i8 %133 to i32
  %135 = shl i32 1, %134
  %136 = add nsw i32 %128, %135
  %137 = sub nsw i32 %136, 1
  %138 = load ptr, ptr %7, align 8, !tbaa !37
  %139 = getelementptr inbounds nuw %struct.ScrollContext, ptr %138, i32 0, i32 9
  %140 = load ptr, ptr %139, align 8, !tbaa !40
  %141 = getelementptr inbounds nuw %struct.AVPixFmtDescriptor, ptr %140, i32 0, i32 2
  %142 = load i8, ptr %141, align 1, !tbaa !53
  %143 = zext i8 %142 to i32
  %144 = ashr i32 %137, %143
  br label %145

145:                                              ; preds = %127, %116
  %146 = phi i32 [ %126, %116 ], [ %144, %127 ]
  %147 = load ptr, ptr %7, align 8, !tbaa !37
  %148 = getelementptr inbounds nuw %struct.ScrollContext, ptr %147, i32 0, i32 11
  %149 = load i32, ptr %148, align 4, !tbaa !50
  %150 = mul nsw i32 %146, %149
  %151 = load ptr, ptr %7, align 8, !tbaa !37
  %152 = getelementptr inbounds nuw %struct.ScrollContext, ptr %151, i32 0, i32 7
  %153 = getelementptr inbounds [4 x i32], ptr %152, i64 0, i64 2
  store i32 %150, ptr %153, align 8, !tbaa !52
  %154 = load ptr, ptr %7, align 8, !tbaa !37
  %155 = getelementptr inbounds nuw %struct.ScrollContext, ptr %154, i32 0, i32 7
  %156 = getelementptr inbounds [4 x i32], ptr %155, i64 0, i64 1
  store i32 %150, ptr %156, align 4, !tbaa !52
  %157 = load i32, ptr %9, align 4, !tbaa !52
  %158 = load ptr, ptr %7, align 8, !tbaa !37
  %159 = getelementptr inbounds nuw %struct.ScrollContext, ptr %158, i32 0, i32 11
  %160 = load i32, ptr %159, align 4, !tbaa !50
  %161 = mul nsw i32 %157, %160
  %162 = load ptr, ptr %7, align 8, !tbaa !37
  %163 = getelementptr inbounds nuw %struct.ScrollContext, ptr %162, i32 0, i32 7
  %164 = getelementptr inbounds [4 x i32], ptr %163, i64 0, i64 3
  store i32 %161, ptr %164, align 4, !tbaa !52
  %165 = load ptr, ptr %7, align 8, !tbaa !37
  %166 = getelementptr inbounds nuw %struct.ScrollContext, ptr %165, i32 0, i32 7
  %167 = getelementptr inbounds [4 x i32], ptr %166, i64 0, i64 0
  store i32 %161, ptr %167, align 8, !tbaa !52
  %168 = load ptr, ptr %5, align 8, !tbaa !9
  %169 = getelementptr inbounds nuw %struct.ThreadData, ptr %8, i32 0, i32 0
  store ptr %168, ptr %169, align 8, !tbaa !64
  %170 = load ptr, ptr %6, align 8, !tbaa !9
  %171 = getelementptr inbounds nuw %struct.ThreadData, ptr %8, i32 0, i32 1
  store ptr %170, ptr %171, align 8, !tbaa !66
  %172 = load ptr, ptr %4, align 8, !tbaa !23
  %173 = load ptr, ptr %6, align 8, !tbaa !9
  %174 = getelementptr inbounds nuw %struct.AVFrame, ptr %173, i32 0, i32 4
  %175 = load i32, ptr %174, align 4, !tbaa !63
  %176 = load ptr, ptr %4, align 8, !tbaa !23
  %177 = call i32 @ff_filter_get_nb_threads(ptr noundef %176) #8
  %178 = icmp sgt i32 %175, %177
  br i1 %178, label %179, label %182

179:                                              ; preds = %145
  %180 = load ptr, ptr %4, align 8, !tbaa !23
  %181 = call i32 @ff_filter_get_nb_threads(ptr noundef %180) #8
  br label %186

182:                                              ; preds = %145
  %183 = load ptr, ptr %6, align 8, !tbaa !9
  %184 = getelementptr inbounds nuw %struct.AVFrame, ptr %183, i32 0, i32 4
  %185 = load i32, ptr %184, align 4, !tbaa !63
  br label %186

186:                                              ; preds = %182, %179
  %187 = phi i32 [ %181, %179 ], [ %185, %182 ]
  %188 = call i32 @ff_filter_execute(ptr noundef %172, ptr noundef @scroll_slice, ptr noundef %8, ptr noundef null, i32 noundef %187)
  %189 = load ptr, ptr %7, align 8, !tbaa !37
  %190 = getelementptr inbounds nuw %struct.ScrollContext, ptr %189, i32 0, i32 1
  %191 = load float, ptr %190, align 8, !tbaa !67
  %192 = load ptr, ptr %5, align 8, !tbaa !9
  %193 = getelementptr inbounds nuw %struct.AVFrame, ptr %192, i32 0, i32 3
  %194 = load i32, ptr %193, align 8, !tbaa !58
  %195 = sitofp i32 %194 to float
  %196 = load ptr, ptr %7, align 8, !tbaa !37
  %197 = getelementptr inbounds nuw %struct.ScrollContext, ptr %196, i32 0, i32 3
  %198 = load float, ptr %197, align 8, !tbaa !55
  %199 = call nsz float @llvm.fmuladd.f32(float %191, float %195, float %198)
  store float %199, ptr %197, align 8, !tbaa !55
  %200 = load ptr, ptr %7, align 8, !tbaa !37
  %201 = getelementptr inbounds nuw %struct.ScrollContext, ptr %200, i32 0, i32 2
  %202 = load float, ptr %201, align 4, !tbaa !68
  %203 = load ptr, ptr %5, align 8, !tbaa !9
  %204 = getelementptr inbounds nuw %struct.AVFrame, ptr %203, i32 0, i32 4
  %205 = load i32, ptr %204, align 4, !tbaa !63
  %206 = sitofp i32 %205 to float
  %207 = load ptr, ptr %7, align 8, !tbaa !37
  %208 = getelementptr inbounds nuw %struct.ScrollContext, ptr %207, i32 0, i32 4
  %209 = load float, ptr %208, align 4, !tbaa !57
  %210 = call nsz float @llvm.fmuladd.f32(float %202, float %206, float %209)
  store float %210, ptr %208, align 4, !tbaa !57
  call void @llvm.lifetime.end.p0(i64 4, ptr %10) #7
  call void @llvm.lifetime.end.p0(i64 4, ptr %9) #7
  call void @llvm.lifetime.end.p0(i64 16, ptr %8) #7
  call void @llvm.lifetime.end.p0(i64 8, ptr %7) #7
  ret void
}

; Function Attrs: nounwind uwtable
define internal i32 @filter_frame(ptr noundef %0, ptr noundef %1) #1 {
  %3 = alloca i32, align 4
  %4 = alloca ptr, align 8
  %5 = alloca ptr, align 8
  %6 = alloca ptr, align 8
  %7 = alloca ptr, align 8
  %8 = alloca ptr, align 8
  %9 = alloca i32, align 4
  store ptr %0, ptr %4, align 8, !tbaa !4
  store ptr %1, ptr %5, align 8, !tbaa !9
  call void @llvm.lifetime.start.p0(i64 8, ptr %6) #7
  %10 = load ptr, ptr %4, align 8, !tbaa !4
  %11 = getelementptr inbounds nuw %struct.AVFilterLink, ptr %10, i32 0, i32 2
  %12 = load ptr, ptr %11, align 8, !tbaa !11
  store ptr %12, ptr %6, align 8, !tbaa !23
  call void @llvm.lifetime.start.p0(i64 8, ptr %7) #7
  %13 = load ptr, ptr %6, align 8, !tbaa !23
  %14 = getelementptr inbounds nuw %struct.AVFilterContext, ptr %13, i32 0, i32 7
  %15 = load ptr, ptr %14, align 8, !tbaa !24
  %16 = getelementptr inbounds ptr, ptr %15, i64 0
  %17 = load ptr, ptr %16, align 8, !tbaa !4
  store ptr %17, ptr %7, align 8, !tbaa !4
  call void @llvm.lifetime.start.p0(i64 8, ptr %8) #7
  %18 = load ptr, ptr %7, align 8, !tbaa !4
  %19 = load ptr, ptr %7, align 8, !tbaa !4
  %20 = getelementptr inbounds nuw %struct.AVFilterLink, ptr %19, i32 0, i32 6
  %21 = load i32, ptr %20, align 8, !tbaa !34
  %22 = load ptr, ptr %7, align 8, !tbaa !4
  %23 = getelementptr inbounds nuw %struct.AVFilterLink, ptr %22, i32 0, i32 7
  %24 = load i32, ptr %23, align 4, !tbaa !35
  %25 = call ptr @ff_get_video_buffer(ptr noundef %18, i32 noundef %21, i32 noundef %24)
  store ptr %25, ptr %8, align 8, !tbaa !9
  %26 = load ptr, ptr %8, align 8, !tbaa !9
  %27 = icmp ne ptr %26, null
  br i1 %27, label %29, label %28

28:                                               ; preds = %2
  call void @av_frame_free(ptr noundef %5)
  store i32 -12, ptr %3, align 4
  store i32 1, ptr %9, align 4
  br label %39

29:                                               ; preds = %2
  %30 = load ptr, ptr %8, align 8, !tbaa !9
  %31 = load ptr, ptr %5, align 8, !tbaa !9
  %32 = call i32 @av_frame_copy_props(ptr noundef %30, ptr noundef %31)
  %33 = load ptr, ptr %6, align 8, !tbaa !23
  %34 = load ptr, ptr %5, align 8, !tbaa !9
  %35 = load ptr, ptr %8, align 8, !tbaa !9
  call void @scroll(ptr noundef %33, ptr noundef %34, ptr noundef %35)
  call void @av_frame_free(ptr noundef %5)
  %36 = load ptr, ptr %7, align 8, !tbaa !4
  %37 = load ptr, ptr %8, align 8, !tbaa !9
  %38 = call i32 @ff_filter_frame(ptr noundef %36, ptr noundef %37)
  store i32 %38, ptr %3, align 4
  store i32 1, ptr %9, align 4
  br label %39

39:                                               ; preds = %29, %28
  call void @llvm.lifetime.end.p0(i64 8, ptr %8) #7
  call void @llvm.lifetime.end.p0(i64 8, ptr %7) #7
  call void @llvm.lifetime.end.p0(i64 8, ptr %6) #7
  %40 = load i32, ptr %3, align 4
  ret i32 %40
}