; Function Attrs: nounwind uwtable
define internal i32 @filter_frame(ptr noundef readonly captures(none) %0, ptr noundef %1) #1 {
  %3 = alloca %struct.ThreadData, align 8
  %4 = alloca ptr, align 8
  store ptr %1, ptr %4, align 8, !tbaa !4
  %5 = getelementptr inbounds nuw i8, ptr %0, i64 16
  %6 = load ptr, ptr %5, align 8, !tbaa !9
  %7 = getelementptr inbounds nuw i8, ptr %6, i64 56
  %8 = load ptr, ptr %7, align 8, !tbaa !21
  %9 = load ptr, ptr %8, align 8, !tbaa !31
  %10 = getelementptr inbounds nuw i8, ptr %9, i64 40
  %11 = load i32, ptr %10, align 8, !tbaa !33
  %12 = getelementptr inbounds nuw i8, ptr %9, i64 44
  %13 = load i32, ptr %12, align 4, !tbaa !34
  %14 = tail call ptr @ff_get_video_buffer(ptr noundef %9, i32 noundef %11, i32 noundef %13) #8
  %.not = icmp eq ptr %14, null
  br i1 %.not, label %15, label %scroll.exit

15:                                               ; preds = %2
  call void @av_frame_free(ptr noundef nonnull %4) #8
  br label %81

scroll.exit:                                      ; preds = %2
  %16 = tail call i32 @av_frame_copy_props(ptr noundef nonnull %14, ptr noundef %1) #8
  %17 = getelementptr inbounds nuw i8, ptr %6, i64 72
  %18 = load ptr, ptr %17, align 8, !tbaa !35
  call void @llvm.lifetime.start.p0(i64 16, ptr nonnull %3) #8
  %19 = getelementptr inbounds nuw i8, ptr %18, i64 16
  %20 = load float, ptr %19, align 8, !tbaa !36
  %21 = getelementptr inbounds nuw i8, ptr %1, i64 104
  %22 = load i32, ptr %21, align 8, !tbaa !40
  %23 = sitofp i32 %22 to float
  %24 = frem nsz float %20, %23
  store float %24, ptr %19, align 8, !tbaa !36
  %25 = getelementptr inbounds nuw i8, ptr %18, i64 20
  %26 = load float, ptr %25, align 4, !tbaa !46
  %27 = getelementptr inbounds nuw i8, ptr %1, i64 108
  %28 = load i32, ptr %27, align 4, !tbaa !47
  %29 = sitofp i32 %28 to float
  %30 = frem nsz float %26, %29
  store float %30, ptr %25, align 4, !tbaa !46
  %31 = fptosi float %24 to i32
  %32 = fptosi float %30 to i32
  %33 = icmp slt i32 %31, 0
  %34 = select i1 %33, i32 %22, i32 0
  %spec.select.i = add nsw i32 %34, %31
  %35 = icmp slt i32 %32, 0
  %36 = select i1 %35, i32 %28, i32 0
  %.0.i = add nsw i32 %36, %32
  %37 = getelementptr inbounds nuw i8, ptr %18, i64 64
  %38 = load ptr, ptr %37, align 8, !tbaa !48
  %39 = sub nsw i32 0, %.0.i
  %40 = getelementptr inbounds nuw i8, ptr %38, i64 10
  %41 = load i8, ptr %40, align 2, !tbaa !49
  %42 = zext nneg i8 %41 to i32
  %43 = ashr i32 %39, %42
  %44 = sub nsw i32 0, %43
  %45 = getelementptr inbounds nuw i8, ptr %18, i64 48
  %46 = getelementptr inbounds nuw i8, ptr %18, i64 56
  store i32 %44, ptr %46, align 8, !tbaa !51
  %47 = getelementptr inbounds nuw i8, ptr %18, i64 52
  store i32 %44, ptr %47, align 4, !tbaa !51
  %48 = getelementptr inbounds nuw i8, ptr %18, i64 60
  store i32 %.0.i, ptr %48, align 4, !tbaa !51
  store i32 %.0.i, ptr %45, align 8, !tbaa !51
  %49 = sub nsw i32 0, %spec.select.i
  %50 = getelementptr inbounds nuw i8, ptr %38, i64 9
  %51 = load i8, ptr %50, align 1, !tbaa !52
  %52 = zext nneg i8 %51 to i32
  %53 = ashr i32 %49, %52
  %54 = getelementptr inbounds nuw i8, ptr %18, i64 76
  %55 = load i32, ptr %54, align 4, !tbaa !53
  %56 = mul i32 %53, %55
  %57 = sub i32 0, %56
  %58 = getelementptr inbounds nuw i8, ptr %18, i64 32
  %59 = getelementptr inbounds nuw i8, ptr %18, i64 40
  store i32 %57, ptr %59, align 8, !tbaa !51
  %60 = getelementptr inbounds nuw i8, ptr %18, i64 36
  store i32 %57, ptr %60, align 4, !tbaa !51
  %61 = mul nsw i32 %55, %spec.select.i
  %62 = getelementptr inbounds nuw i8, ptr %18, i64 44
  store i32 %61, ptr %62, align 4, !tbaa !51
  store i32 %61, ptr %58, align 8, !tbaa !51
  store ptr %1, ptr %3, align 8, !tbaa !54
  %63 = getelementptr inbounds nuw i8, ptr %3, i64 8
  store ptr %14, ptr %63, align 8, !tbaa !56
  %64 = getelementptr inbounds nuw i8, ptr %14, i64 108
  %65 = load i32, ptr %64, align 4, !tbaa !47
  %66 = tail call i32 @ff_filter_get_nb_threads(ptr noundef nonnull %6) #9
  %..i = tail call i32 @llvm.smin.i32(i32 %65, i32 %66)
  %67 = call i32 @ff_filter_execute(ptr noundef nonnull %6, ptr noundef nonnull @scroll_slice, ptr noundef nonnull %3, ptr noundef null, i32 noundef %..i) #8
  %68 = getelementptr inbounds nuw i8, ptr %18, i64 8
  %69 = load float, ptr %68, align 8, !tbaa !57
  %70 = load i32, ptr %21, align 8, !tbaa !40
  %71 = sitofp i32 %70 to float
  %72 = load float, ptr %19, align 8, !tbaa !36
  %73 = call nsz float @llvm.fmuladd.f32(float %69, float %71, float %72)
  store float %73, ptr %19, align 8, !tbaa !36
  %74 = getelementptr inbounds nuw i8, ptr %18, i64 12
  %75 = load float, ptr %74, align 4, !tbaa !58
  %76 = load i32, ptr %27, align 4, !tbaa !47
  %77 = sitofp i32 %76 to float
  %78 = load float, ptr %25, align 4, !tbaa !46
  %79 = call nsz float @llvm.fmuladd.f32(float %75, float %77, float %78)
  store float %79, ptr %25, align 4, !tbaa !46
  call void @llvm.lifetime.end.p0(i64 16, ptr nonnull %3) #8
  call void @av_frame_free(ptr noundef nonnull %4) #8
  %80 = call i32 @ff_filter_frame(ptr noundef nonnull %9, ptr noundef nonnull %14) #8
  br label %81

81:                                               ; preds = %scroll.exit, %15
  %.0 = phi i32 [ %80, %scroll.exit ], [ -12, %15 ]
  ret i32 %.0
}